; Function Attrs: nounwind uwtable
define void @ossl_qlog_event_end(ptr noundef %0) local_unnamed_addr #0 {
  %.not = icmp eq ptr %0, null
  br i1 %.not, label %.critedge, label %2

2:                                                ; preds = %1
  %3 = getelementptr inbounds nuw i8, ptr %0, i64 104
  %4 = load i32, ptr %3, align 8, !tbaa !44
  %.not4 = icmp eq i32 %4, 0
  br i1 %.not4, label %.critedge, label %5, !prof !51

5:                                                ; preds = %2
  %6 = getelementptr inbounds nuw i8, ptr %0, i64 152
  tail call void @ossl_json_object_end(ptr noundef nonnull %6) #11
  tail call void @ossl_json_key(ptr noundef nonnull %6, ptr noundef nonnull @.str.34) #11
  %7 = getelementptr inbounds nuw i8, ptr %0, i64 244
  %8 = load i32, ptr %7, align 4, !tbaa !52
  %.not.i = icmp eq i32 %8, 0
  %9 = getelementptr inbounds nuw i8, ptr %0, i64 136
  br i1 %.not.i, label %10, label %15

10:                                               ; preds = %5
  %11 = load i64, ptr %9, align 8
  %12 = udiv i64 %11, 1000000
  tail call void @ossl_json_u64(ptr noundef nonnull %6, i64 noundef %12) #11
  %13 = getelementptr inbounds nuw i8, ptr %0, i64 144
  %14 = load i64, ptr %9, align 8, !tbaa !43
  store i64 %14, ptr %13, align 8, !tbaa !43
  store i32 1, ptr %7, align 4, !tbaa !52
  br label %qlog_event_epilogue.exit

15:                                               ; preds = %5
  %16 = getelementptr inbounds nuw i8, ptr %0, i64 144
  %17 = load i64, ptr %9, align 8
  %18 = load i64, ptr %16, align 8
  %..i.i = tail call i64 @llvm.usub.sat.i64(i64 %17, i64 %18)
  %19 = udiv i64 %..i.i, 1000000
  tail call void @ossl_json_u64(ptr noundef nonnull %6, i64 noundef %19) #11
  %20 = load i64, ptr %9, align 8, !tbaa !43
  store i64 %20, ptr %16, align 8, !tbaa !43
  br label %qlog_event_epilogue.exit

qlog_event_epilogue.exit:                         ; preds = %10, %15
  tail call void @ossl_json_object_end(ptr noundef nonnull %6) #11
  store i32 0, ptr %3, align 8, !tbaa !44
  br label %.critedge

.critedge:                                        ; preds = %1, %2, %qlog_event_epilogue.exit
  ret void
}